Certificate:
    Data:
        Version: 3 (0x2)
        Serial Number: 4100 (0x1004)
        Signature Algorithm: sha256WithRSAEncryption
        Issuer: C=CN, ST=Hubei, L=WuHan, O=HUST, OU=CSE, CN=fqhvpnca.com
        Validity
            Not Before: May  8 12:08:51 2023 GMT
            Not After : May  5 12:08:51 2033 GMT
        Subject: C=CN, ST=Hubei, O=HUST, OU=CSE, CN=fqhvpnclient.com
        Subject Public Key Info:
            Public Key Algorithm: rsaEncryption
                RSA Public-Key: (2048 bit)
                Modulus:
                    00:d5:b3:1d:ec:c6:0c:e5:30:56:06:81:d3:e8:4f:
                    22:92:d5:45:4c:0f:7a:69:bd:b7:0b:d3:41:ff:b5:
                    17:40:08:43:b4:b9:c1:8b:12:73:e3:21:cb:94:35:
                    55:b4:9b:d3:bc:aa:39:d2:40:1f:34:41:25:de:ff:
                    3d:95:93:1b:b8:95:9d:91:e6:ea:6b:2b:03:cf:10:
                    3e:34:db:3c:f5:a0:f8:9e:a9:5c:64:76:25:6e:05:
                    af:b4:e0:e7:61:18:39:75:c6:ed:09:5b:b4:31:f6:
                    9d:e0:72:85:ce:8c:40:b6:e0:c1:96:ad:5b:95:14:
                    be:0a:ef:6f:cf:14:e3:8b:f6:6b:8b:2c:31:e3:00:
                    2e:c5:f5:1c:91:66:d4:c3:e4:c9:c8:2e:a1:51:db:
                    2f:a5:98:67:1f:b0:0a:bb:86:fc:17:45:08:74:ff:
                    65:d7:87:89:ef:1e:7d:00:2f:89:52:0d:1f:72:1c:
                    dd:35:2e:0f:75:fa:56:6d:51:fc:4c:b8:9b:d6:92:
                    7e:a3:6a:b7:ad:87:a6:46:cf:1a:ee:80:b7:4c:9f:
                    6b:46:ea:b0:df:0d:f5:9d:6c:a9:ce:de:8f:f0:45:
                    ef:43:66:9e:d2:7a:9e:3b:9b:93:d1:a9:48:d0:67:
                    c7:fb:1d:71:ff:39:a0:d5:8f:98:b2:f8:f8:f3:85:
                    9a:5f
                Exponent: 65537 (0x10001)
        X509v3 extensions:
            X509v3 Basic Constraints: 
                CA:FALSE
            Netscape Comment: 
                OpenSSL Generated Certificate
            X509v3 Subject Key Identifier: 
                2F:7C:EF:F0:9A:20:DF:63:90:B8:D6:FE:4C:0D:A7:24:A2:16:B6:85
            X509v3 Authority Key Identifier: 
                keyid:6E:38:42:32:BA:44:05:30:C5:31:E4:59:80:35:8F:F2:3A:80:4F:A7

    Signature Algorithm: sha256WithRSAEncryption
         c5:81:d4:56:c2:98:d0:6f:9c:f5:1c:f6:1a:13:61:16:1e:08:
         7d:66:0e:69:94:0b:47:bb:9c:3c:3d:a0:7b:5b:c2:3c:89:25:
         dd:f1:30:56:1d:c2:f6:84:02:0a:9d:ef:05:b8:a3:ac:99:d8:
         af:87:25:02:d7:4e:5d:cd:2a:90:d5:a7:d4:fe:55:e2:66:e7:
         ca:a8:0d:6a:a8:bd:1d:9e:db:3e:67:72:cc:a3:64:5d:e7:68:
         de:8e:10:0e:80:21:30:af:04:f9:6f:98:b9:93:d1:f3:1b:34:
         02:a5:3f:3e:71:a5:dc:80:5d:f8:a5:32:de:22:26:aa:4d:06:
         11:35:bc:3d:3c:39:d4:4e:ca:9f:b5:7a:c8:a6:f4:fc:c2:c3:
         2c:5c:c3:a1:77:b9:61:a9:e7:eb:da:ce:c4:1e:12:8e:ce:75:
         51:d6:42:d0:1b:c2:05:92:bd:b4:18:6d:e5:a9:e0:07:02:d2:
         79:2e:47:c9:3e:c8:a6:f9:0f:a4:74:5b:77:f3:ee:e4:89:cb:
         ff:7e:a0:4c:e4:ef:28:27:eb:c2:dd:09:bf:49:7f:69:c1:8a:
         d1:9f:96:36:3e:be:03:72:99:83:5a:0d:af:80:5f:35:b4:6e:
         61:7b:a4:c3:c2:fc:df:18:72:e8:9d:08:f4:8f:0a:f1:2c:21:
         a1:8a:ca:ba
-----BEGIN CERTIFICATE-----
MIIDrTCCApWgAwIBAgICEAQwDQYJKoZIhvcNAQELBQAwYTELMAkGA1UEBhMCQ04x
DjAMBgNVBAgMBUh1YmVpMQ4wDAYDVQQHDAVXdUhhbjENMAsGA1UECgwESFVTVDEM
MAoGA1UECwwDQ1NFMRUwEwYDVQQDDAxmcWh2cG5jYS5jb20wHhcNMjMwNTA4MTIw
ODUxWhcNMzMwNTA1MTIwODUxWjBVMQswCQYDVQQGEwJDTjEOMAwGA1UECAwFSHVi
ZWkxDTALBgNVBAoMBEhVU1QxDDAKBgNVBAsMA0NTRTEZMBcGA1UEAwwQZnFodnBu
Y2xpZW50LmNvbTCCASIwDQYJKoZIhvcNAQEBBQADggEPADCCAQoCggEBANWzHezG
DOUwVgaB0+hPIpLVRUwPemm9twvTQf+1F0AIQ7S5wYsSc+Mhy5Q1VbSb07yqOdJA
HzRBJd7/PZWTG7iVnZHm6msrA88QPjTbPPWg+J6pXGR2JW4Fr7Tg52EYOXXG7Qlb
tDH2neByhc6MQLbgwZatW5UUvgrvb88U44v2a4ssMeMALsX1HJFm1MPkycguoVHb
L6WYZx+wCruG/BdFCHT/ZdeHie8efQAviVINH3Ic3TUuD3X6Vm1R/Ey4m9aSfqNq
t62HpkbPGu6At0yfa0bqsN8N9Z1sqc7ej/BF70NmntJ6njubk9GpSNBnx/sdcf85
oNWPmLL4+POFml8CAwEAAaN7MHkwCQYDVR0TBAIwADAsBglghkgBhvhCAQ0EHxYd
T3BlblNTTCBHZW5lcmF0ZWQgQ2VydGlmaWNhdGUwHQYDVR0OBBYEFC987/CaIN9j
kLjW/kwNpySiFraFMB8GA1UdIwQYMBaAFG44QjK6RAUwxTHkWYA1j/I6gE+nMA0G
CSqGSIb3DQEBCwUAA4IBAQDFgdRWwpjQb5z1HPYaE2EWHgh9Zg5plAtHu5w8PaB7
W8I8iSXd8TBWHcL2hAIKne8FuKOsmdivhyUC105dzSqQ1afU/lXiZufKqA1qqL0d
nts+Z3LMo2Rd52jejhAOgCEwrwT5b5i5k9HzGzQCpT8+caXcgF34pTLeIiaqTQYR
Nbw9PDnUTsqftXrIpvT8wsMsXMOhd7lhqefr2s7EHhKOznVR1kLQG8IFkr20GG3l
qeAHAtJ5LkfJPsim+Q+kdFt38+7kicv/fqBM5O8oJ+vC3Qm/SX9pwYrRn5Y2Pr4D
cpmDWg2vgF81tG5he6TDwvzfGHLonQj0jwrxLCGhisq6
-----END CERTIFICATE-----
