Certificate:
    Data:
        Version: 3 (0x2)
        Serial Number: 4102 (0x1006)
    Signature Algorithm: sha256WithRSAEncryption
        Issuer: C=CN, ST=HB, L=WH, O=HUST, OU=CSE, CN=vpnca.com
        Validity
            Not Before: May  6 03:05:45 2023 GMT
            Not After : May  3 03:05:45 2033 GMT
        Subject: C=CN, ST=HB, O=HUST, OU=CSE, CN=vpnserver.com
        Subject Public Key Info:
            Public Key Algorithm: rsaEncryption
                Public-Key: (2048 bit)
                Modulus:
                    00:f5:65:19:77:d6:97:17:74:79:cf:37:f6:f7:c6:
                    d6:87:43:5e:c5:80:b8:9f:f1:ca:75:ff:35:5f:e4:
                    60:4a:f9:8a:5d:8f:ea:1d:4d:5b:2a:81:d7:73:c3:
                    a5:3f:e1:43:99:e1:a7:20:57:99:ce:2c:36:5f:b6:
                    90:e2:d9:0c:fd:45:73:df:8f:c3:d6:cd:64:f3:9b:
                    2e:76:41:bb:cd:51:c9:96:59:c5:cf:af:53:b0:21:
                    3e:a3:53:16:eb:22:e2:74:0f:f4:eb:5b:95:aa:82:
                    fc:6f:5d:0f:be:d8:08:56:6d:cb:8d:ac:69:2b:8f:
                    94:19:3a:38:f8:71:c6:39:33:3a:9b:19:8c:ec:a6:
                    63:d7:e0:ad:d2:61:b0:a6:63:7b:46:45:7a:39:ba:
                    74:6a:f9:18:83:2b:26:ee:16:8d:2a:82:86:3c:b6:
                    82:87:8c:16:6a:e2:6e:08:ff:d4:40:51:c5:d1:92:
                    07:a4:f9:16:45:86:13:ac:37:de:36:b6:0c:38:6f:
                    49:94:28:cf:c5:4b:c2:0a:90:fd:e1:0f:9e:33:24:
                    8c:92:3c:12:83:63:cc:44:03:17:fb:13:69:0f:d1:
                    03:7a:63:9f:c6:13:4c:01:1e:45:8e:70:7f:2e:04:
                    b6:b1:07:03:c7:6f:cd:bd:9b:ad:7c:ee:2b:11:dd:
                    3d:2d
                Exponent: 65537 (0x10001)
        X509v3 extensions:
            X509v3 Basic Constraints: 
                CA:FALSE
            Netscape Comment: 
                OpenSSL Generated Certificate
            X509v3 Subject Key Identifier: 
                D6:E8:08:14:03:66:2E:A0:9E:4C:3D:F1:01:FB:3D:A8:91:E9:DC:ED
            X509v3 Authority Key Identifier: 
                keyid:67:3D:71:A0:B3:8E:BF:6C:42:FE:FE:8D:68:91:9B:A7:E8:AB:47:CD

    Signature Algorithm: sha256WithRSAEncryption
         47:d6:ea:05:39:10:4c:24:c1:ce:cf:56:24:55:26:fe:b3:8d:
         9d:f3:3f:8b:83:f5:d8:98:99:57:34:b7:1c:70:ca:2b:82:8c:
         c0:24:c8:d4:b3:a6:07:2c:d9:92:7e:ea:1d:51:f9:65:0a:cf:
         45:6e:de:78:35:81:a1:83:b1:b0:54:37:48:d3:4d:79:f9:8a:
         f5:52:ba:7c:01:b6:08:89:0b:66:d3:6a:34:25:6b:4a:89:dc:
         4b:9d:6a:cb:7b:52:8c:b0:c5:1e:6a:38:37:88:dc:4a:88:01:
         35:9c:43:6b:31:d2:4e:b1:17:d3:52:35:1c:f1:be:87:61:b9:
         c9:ab:44:b1:28:52:c3:c8:c2:dc:a4:82:f6:c2:8b:a2:55:d8:
         9c:7e:66:4b:21:97:9a:f5:f5:02:bc:01:3d:8d:e7:80:89:82:
         5b:69:e4:c2:b8:58:ee:d4:4e:a9:20:46:9a:97:8d:65:db:9d:
         ed:fb:e2:ee:a2:c6:ec:e3:1d:20:0f:ef:11:1b:0a:07:6f:88:
         ab:bf:d4:d5:3c:b2:db:1c:15:39:76:87:a4:ac:bc:57:e6:b9:
         fa:9d:96:6e:6e:71:e3:08:e9:25:6d:97:81:8f:b6:5a:92:e6:
         06:62:f8:61:2f:44:b2:8c:54:da:a1:e3:d3:ff:5a:40:72:71:
         8c:cb:6c:6d
-----BEGIN CERTIFICATE-----
MIIDnjCCAoagAwIBAgICEAYwDQYJKoZIhvcNAQELBQAwWDELMAkGA1UEBhMCQ04x
CzAJBgNVBAgMAkhCMQswCQYDVQQHDAJXSDENMAsGA1UECgwESFVTVDEMMAoGA1UE
CwwDQ1NFMRIwEAYDVQQDDAl2cG5jYS5jb20wHhcNMjMwNTA2MDMwNTQ1WhcNMzMw
NTAzMDMwNTQ1WjBPMQswCQYDVQQGEwJDTjELMAkGA1UECAwCSEIxDTALBgNVBAoM
BEhVU1QxDDAKBgNVBAsMA0NTRTEWMBQGA1UEAwwNdnBuc2VydmVyLmNvbTCCASIw
DQYJKoZIhvcNAQEBBQADggEPADCCAQoCggEBAPVlGXfWlxd0ec839vfG1odDXsWA
uJ/xynX/NV/kYEr5il2P6h1NWyqB13PDpT/hQ5nhpyBXmc4sNl+2kOLZDP1Fc9+P
w9bNZPObLnZBu81RyZZZxc+vU7AhPqNTFusi4nQP9OtblaqC/G9dD77YCFZty42s
aSuPlBk6OPhxxjkzOpsZjOymY9fgrdJhsKZje0ZFejm6dGr5GIMrJu4WjSqChjy2
goeMFmribgj/1EBRxdGSB6T5FkWGE6w33ja2DDhvSZQoz8VLwgqQ/eEPnjMkjJI8
EoNjzEQDF/sTaQ/RA3pjn8YTTAEeRY5wfy4EtrEHA8dvzb2brXzuKxHdPS0CAwEA
AaN7MHkwCQYDVR0TBAIwADAsBglghkgBhvhCAQ0EHxYdT3BlblNTTCBHZW5lcmF0
ZWQgQ2VydGlmaWNhdGUwHQYDVR0OBBYEFNboCBQDZi6gnkw98QH7PaiR6dztMB8G
A1UdIwQYMBaAFGc9caCzjr9sQv7+jWiRm6foq0fNMA0GCSqGSIb3DQEBCwUAA4IB
AQBH1uoFORBMJMHOz1YkVSb+s42d8z+Lg/XYmJlXNLcccMorgozAJMjUs6YHLNmS
fuodUfllCs9Fbt54NYGhg7GwVDdI0015+Yr1Urp8AbYIiQtm02o0JWtKidxLnWrL
e1KMsMUeajg3iNxKiAE1nENrMdJOsRfTUjUc8b6HYbnJq0SxKFLDyMLcpIL2woui
VdicfmZLIZea9fUCvAE9jeeAiYJbaeTCuFju1E6pIEaal41l253t++Luosbs4x0g
D+8RGwoHb4irv9TVPLLbHBU5doekrLxX5rn6nZZubnHjCOklbZeBj7ZakuYGYvhh
L0SyjFTaoePT/1pAcnGMy2xt
-----END CERTIFICATE-----
