Certificate:
    Data:
        Version: 3 (0x2)
        Serial Number: 4103 (0x1007)
    Signature Algorithm: sha256WithRSAEncryption
        Issuer: C=CN, ST=HB, L=WH, O=HUST, OU=CSE, CN=vpnca.com
        Validity
            Not Before: May  6 11:28:25 2023 GMT
            Not After : May  3 11:28:25 2033 GMT
        Subject: C=CN, ST=HB, O=HUST, OU=CSE, CN=vpnclient.com
        Subject Public Key Info:
            Public Key Algorithm: rsaEncryption
                Public-Key: (2048 bit)
                Modulus:
                    00:fa:fb:06:d6:a3:5f:e0:80:36:b4:a0:d7:08:6e:
                    8b:30:23:11:54:09:b1:11:ac:eb:86:66:95:bd:d8:
                    21:72:19:0b:48:e6:71:51:d9:8b:11:49:b1:f7:69:
                    3a:fb:7b:5f:ed:73:29:7f:06:45:4f:9d:77:5e:92:
                    ba:56:0a:e9:39:68:00:20:98:9a:06:9e:6b:17:3c:
                    6e:e5:ce:8e:bb:47:b1:cf:d7:f5:6a:77:d7:ea:45:
                    33:21:3a:96:72:4b:c2:a8:3a:bd:82:02:74:92:15:
                    12:43:8e:33:4e:8e:ee:ed:fd:a5:12:9a:05:09:c8:
                    da:e7:67:27:ba:17:d8:37:2e:69:79:66:c2:90:19:
                    e2:0d:6c:4a:47:8b:6e:59:f3:ad:21:79:5b:49:25:
                    c1:e6:5e:e8:9c:79:89:8e:d5:ce:1a:d0:9c:ab:7b:
                    f5:c9:b1:8c:4f:93:40:f7:c6:9a:f6:4d:2b:14:8b:
                    d1:60:80:b5:aa:0c:27:bd:2a:f1:4f:63:11:4e:bc:
                    94:59:a9:d8:49:68:ca:03:f6:b5:d3:3a:ff:b0:b4:
                    dc:c0:09:9d:e5:f9:a6:6b:f6:7b:3a:f6:79:b9:ce:
                    b2:9a:0c:de:2a:e7:b1:db:76:33:06:c8:cd:87:c4:
                    63:20:f7:a3:e0:a1:8c:7b:6e:07:9b:16:22:63:6d:
                    54:83
                Exponent: 65537 (0x10001)
        X509v3 extensions:
            X509v3 Basic Constraints: 
                CA:FALSE
            Netscape Comment: 
                OpenSSL Generated Certificate
            X509v3 Subject Key Identifier: 
                6C:D7:0F:8A:D0:93:77:60:F5:B9:EA:FF:52:F0:C4:7D:16:EF:5E:BC
            X509v3 Authority Key Identifier: 
                keyid:67:3D:71:A0:B3:8E:BF:6C:42:FE:FE:8D:68:91:9B:A7:E8:AB:47:CD

    Signature Algorithm: sha256WithRSAEncryption
         5b:14:50:2a:6c:6e:39:f1:96:e5:25:e7:73:81:fc:7d:2a:09:
         42:34:2d:69:fe:f9:c0:29:da:ea:52:d1:b0:95:6d:49:c4:02:
         da:c6:c4:86:14:0b:5c:7e:b4:6d:6f:da:44:7e:e7:13:66:9d:
         5d:ac:32:04:8f:c1:a3:8d:62:ed:e3:1a:fd:35:55:ca:dc:78:
         ba:a0:2d:43:59:3f:2a:fc:f2:a0:15:d3:ad:ab:d2:32:69:be:
         f2:a8:6b:7b:14:89:9f:59:bb:9f:dd:b3:0a:b3:6d:a5:a3:97:
         61:6b:da:65:7f:be:ad:2b:12:52:35:8f:bf:38:4f:e3:16:25:
         3a:da:bd:8f:1c:52:34:2f:7a:4c:8e:23:e9:78:83:b1:2f:2e:
         03:d1:4d:5c:da:7a:ee:b2:43:8f:32:4f:b0:0b:54:09:c9:cf:
         30:37:d2:4e:bc:0a:b2:22:b6:60:f7:20:d8:21:d0:03:db:4d:
         cd:90:26:69:f7:17:92:bc:b2:0d:c4:6f:99:d3:1d:7f:76:f2:
         ed:0f:ca:9f:4e:e9:55:45:f0:f7:c4:e4:77:c6:17:c5:21:82:
         67:00:6a:87:d7:30:15:0e:bb:30:44:3d:cc:b0:ac:87:ec:da:
         3f:c3:7a:bb:c4:94:b5:76:4a:47:96:d6:2d:98:6c:28:6c:b1:
         44:3d:4d:39
-----BEGIN CERTIFICATE-----
MIIDnjCCAoagAwIBAgICEAcwDQYJKoZIhvcNAQELBQAwWDELMAkGA1UEBhMCQ04x
CzAJBgNVBAgMAkhCMQswCQYDVQQHDAJXSDENMAsGA1UECgwESFVTVDEMMAoGA1UE
CwwDQ1NFMRIwEAYDVQQDDAl2cG5jYS5jb20wHhcNMjMwNTA2MTEyODI1WhcNMzMw
NTAzMTEyODI1WjBPMQswCQYDVQQGEwJDTjELMAkGA1UECAwCSEIxDTALBgNVBAoM
BEhVU1QxDDAKBgNVBAsMA0NTRTEWMBQGA1UEAwwNdnBuY2xpZW50LmNvbTCCASIw
DQYJKoZIhvcNAQEBBQADggEPADCCAQoCggEBAPr7BtajX+CANrSg1whuizAjEVQJ
sRGs64Zmlb3YIXIZC0jmcVHZixFJsfdpOvt7X+1zKX8GRU+dd16SulYK6TloACCY
mgaeaxc8buXOjrtHsc/X9Wp31+pFMyE6lnJLwqg6vYICdJIVEkOOM06O7u39pRKa
BQnI2udnJ7oX2DcuaXlmwpAZ4g1sSkeLblnzrSF5W0klweZe6Jx5iY7VzhrQnKt7
9cmxjE+TQPfGmvZNKxSL0WCAtaoMJ70q8U9jEU68lFmp2EloygP2tdM6/7C03MAJ
neX5pmv2ezr2ebnOspoM3irnsdt2MwbIzYfEYyD3o+ChjHtuB5sWImNtVIMCAwEA
AaN7MHkwCQYDVR0TBAIwADAsBglghkgBhvhCAQ0EHxYdT3BlblNTTCBHZW5lcmF0
ZWQgQ2VydGlmaWNhdGUwHQYDVR0OBBYEFGzXD4rQk3dg9bnq/1LwxH0W7168MB8G
A1UdIwQYMBaAFGc9caCzjr9sQv7+jWiRm6foq0fNMA0GCSqGSIb3DQEBCwUAA4IB
AQBbFFAqbG458ZblJedzgfx9KglCNC1p/vnAKdrqUtGwlW1JxALaxsSGFAtcfrRt
b9pEfucTZp1drDIEj8GjjWLt4xr9NVXK3Hi6oC1DWT8q/PKgFdOtq9Iyab7yqGt7
FImfWbuf3bMKs22lo5dha9plf76tKxJSNY+/OE/jFiU62r2PHFI0L3pMjiPpeIOx
Ly4D0U1c2nruskOPMk+wC1QJyc8wN9JOvAqyIrZg9yDYIdAD203NkCZp9xeSvLIN
xG+Z0x1/dvLtD8qfTulVRfD3xOR3xhfFIYJnAGqH1zAVDrswRD3MsKyH7No/w3q7
xJS1dkpHltYtmGwobLFEPU05
-----END CERTIFICATE-----
